target datalayout = "e-m:e-p270:32:32-p271:32:32-p272:64:64-i64:64-i128:128-f80:128-n8:16:32:64-S128"
target triple = "x86_64-pc-linux-gnu"

; Function Attrs: nounwind uwtable
define hidden i32 @mbedtls_ct_memcmp(ptr noundef %0, ptr noundef %1, i64 noundef %2) #0 {
  %4 = alloca ptr, align 8
  %5 = alloca ptr, align 8
  %6 = alloca i64, align 8
  %7 = alloca i64, align 8
  %8 = alloca ptr, align 8
  %9 = alloca ptr, align 8
  %10 = alloca i32, align 4
  %11 = alloca i8, align 1
  %12 = alloca i8, align 1
  store ptr %0, ptr %4, align 8, !tbaa !3
  store ptr %1, ptr %5, align 8, !tbaa !3
  store i64 %2, ptr %6, align 8, !tbaa !7
  call void @llvm.lifetime.start.p0(i64 8, ptr %7) #5
  store i64 0, ptr %7, align 8, !tbaa !7
  call void @llvm.lifetime.start.p0(i64 8, ptr %8) #5
  %13 = load ptr, ptr %4, align 8, !tbaa !3
  store ptr %13, ptr %8, align 8, !tbaa !9
  call void @llvm.lifetime.start.p0(i64 8, ptr %9) #5
  %14 = load ptr, ptr %5, align 8, !tbaa !3
  store ptr %14, ptr %9, align 8, !tbaa !9
  call void @llvm.lifetime.start.p0(i64 4, ptr %10) #5
  store i32 0, ptr %10, align 4, !tbaa !11
  br label %15

15:                                               ; preds = %35, %3
  %16 = load i64, ptr %7, align 8, !tbaa !7
  %17 = load i64, ptr %6, align 8, !tbaa !7
  %18 = icmp ult i64 %16, %17
  br i1 %18, label %19, label %38

19:                                               ; preds = %15
  call void @llvm.lifetime.start.p0(i64 1, ptr %11) #5
  %20 = load ptr, ptr %8, align 8, !tbaa !9
  %21 = load i64, ptr %7, align 8, !tbaa !7
  %22 = getelementptr inbounds nuw i8, ptr %20, i64 %21
  %23 = load volatile i8, ptr %22, align 1, !tbaa !13
  store i8 %23, ptr %11, align 1, !tbaa !13
  call void @llvm.lifetime.start.p0(i64 1, ptr %12) #5
  %24 = load ptr, ptr %9, align 8, !tbaa !9
  %25 = load i64, ptr %7, align 8, !tbaa !7
  %26 = getelementptr inbounds nuw i8, ptr %24, i64 %25
  %27 = load volatile i8, ptr %26, align 1, !tbaa !13
  store i8 %27, ptr %12, align 1, !tbaa !13
  %28 = load i8, ptr %11, align 1, !tbaa !13
  %29 = zext i8 %28 to i32
  %30 = load i8, ptr %12, align 1, !tbaa !13
  %31 = zext i8 %30 to i32
  %32 = xor i32 %29, %31
  %33 = load i32, ptr %10, align 4, !tbaa !11
  %34 = or i32 %33, %32
  store i32 %34, ptr %10, align 4, !tbaa !11
  call void @llvm.lifetime.end.p0(i64 1, ptr %12) #5
  call void @llvm.lifetime.end.p0(i64 1, ptr %11) #5
  br label %35

35:                                               ; preds = %19
  %36 = load i64, ptr %7, align 8, !tbaa !7
  %37 = add i64 %36, 1
  store i64 %37, ptr %7, align 8, !tbaa !7
  br label %15, !llvm.loop !14

38:                                               ; preds = %15
  %39 = load i32, ptr %10, align 4, !tbaa !11
  %40 = and i32 %39, 65535
  %41 = load i32, ptr %10, align 4, !tbaa !11
  %42 = lshr i32 %41, 16
  %43 = or i32 %40, %42
  call void @llvm.lifetime.end.p0(i64 4, ptr %10) #5
  call void @llvm.lifetime.end.p0(i64 8, ptr %9) #5
  call void @llvm.lifetime.end.p0(i64 8, ptr %8) #5
  call void @llvm.lifetime.end.p0(i64 8, ptr %7) #5
  ret i32 %43
}